target datalayout = "e-m:e-p270:32:32-p271:32:32-p272:64:64-i64:64-i128:128-f80:128-n8:16:32:64-S128"
target triple = "x86_64-pc-linux-gnu"

%struct.lexbor_hash_entry = type { %union.anon, i64, ptr }
%union.anon = type { ptr, [16 x i8] }
%struct.lxb_ns_prefix_data_t = type { %struct.lexbor_hash_entry, i64, i64, i8 }

; Function Attrs: nounwind uwtable
define hidden ptr @lxb_ns_prefix_data_by_id(ptr noundef %0, i64 noundef %1) #0 {
  %3 = alloca ptr, align 8
  %4 = alloca ptr, align 8
  %5 = alloca i64, align 8
  store ptr %0, ptr %4, align 8
  store i64 %1, ptr %5, align 8
  %6 = load i64, ptr %5, align 8
  %7 = icmp uge i64 %6, 8
  br i1 %7, label %8, label %15

8:                                                ; preds = %2
  %9 = load i64, ptr %5, align 8
  %10 = icmp eq i64 %9, 8
  br i1 %10, label %11, label %12

11:                                               ; preds = %8
  store ptr null, ptr %3, align 8
  br label %18

12:                                               ; preds = %8
  %13 = load i64, ptr %5, align 8
  %14 = inttoptr i64 %13 to ptr
  store ptr %14, ptr %3, align 8
  br label %18

15:                                               ; preds = %2
  %16 = load i64, ptr %5, align 8
  %17 = getelementptr inbounds [8 x %struct.lxb_ns_prefix_data_t], ptr @lxb_ns_prefix_res_data, i64 0, i64 %16
  store ptr %17, ptr %3, align 8
  br label %18

18:                                               ; preds = %15, %12, %11
  %19 = load ptr, ptr %3, align 8
  ret ptr %19
}